; Function Attrs: nounwind uwtable
define dso_local range(i32 0, 2) i32 @remove_index_entry_at(ptr noundef %0, i32 noundef %1) local_unnamed_addr #0 {
  %3 = load ptr, ptr %0, align 8, !tbaa !4
  %4 = sext i32 %1 to i64
  %5 = getelementptr inbounds ptr, ptr %3, i64 %4
  %6 = load ptr, ptr %5, align 8, !tbaa !25
  tail call void @record_resolve_undo(ptr noundef nonnull %0, ptr noundef %6) #30
  tail call void @remove_name_hash(ptr noundef nonnull %0, ptr noundef %6) #30
  tail call void @save_or_free_index_entry(ptr noundef nonnull %0, ptr noundef %6) #30
  %7 = getelementptr inbounds nuw i8, ptr %0, i64 20
  %8 = load i32, ptr %7, align 4, !tbaa !33
  %9 = or i32 %8, 4
  store i32 %9, ptr %7, align 4, !tbaa !33
  %10 = getelementptr inbounds nuw i8, ptr %0, i64 12
  %11 = load i32, ptr %10, align 4, !tbaa !34
  %12 = add i32 %11, -1
  store i32 %12, ptr %10, align 4, !tbaa !34
  %.not = icmp ult i32 %1, %12
  br i1 %.not, label %13, label %move_array.exit

13:                                               ; preds = %2
  %14 = sub nuw i32 %12, %1
  %15 = zext i32 %14 to i64
  %16 = load ptr, ptr %0, align 8, !tbaa !4
  %17 = getelementptr inbounds ptr, ptr %16, i64 %4
  %18 = getelementptr inbounds nuw i8, ptr %17, i64 8
  %19 = shl nuw nsw i64 %15, 3
  tail call void @llvm.memmove.p0.p0.i64(ptr align 1 %17, ptr nonnull readonly align 1 %18, i64 %19, i1 false)
  br label %move_array.exit

move_array.exit:                                  ; preds = %13, %2
  %.0 = phi i32 [ 0, %2 ], [ 1, %13 ]
  ret i32 %.0
}